; Function Attrs: mustprogress uwtable
define void @_ZN5faiss3lsq13LSQTimerScopeC2EPNS0_8LSQTimerENSt7__cxx1112basic_stringIcSt11char_traitsIcESaIcEEE(ptr noundef nonnull align 8 dereferenceable(49) %0, ptr noundef %1, ptr noundef nonnull %2) unnamed_addr #1 align 2 personality ptr @__gxx_personality_v0 {
  %4 = getelementptr inbounds i8, ptr %0, i64 8
  store ptr %1, ptr %4, align 8
  %5 = getelementptr inbounds i8, ptr %0, i64 16
  tail call void @_ZNSt7__cxx1112basic_stringIcSt11char_traitsIcESaIcEEC1ERKS4_(ptr noundef nonnull align 8 dereferenceable(32) %5, ptr noundef nonnull align 8 dereferenceable(32) %2)
  %6 = getelementptr inbounds i8, ptr %0, i64 48
  store i8 0, ptr %6, align 8
  %7 = invoke noundef double @_ZN5faiss12getmillisecsEv()
          to label %8 unwind label %9

8:                                                ; preds = %3
  store double %7, ptr %0, align 8
  ret void

9:                                                ; preds = %3
  %10 = landingpad { ptr, i32 }
          cleanup
  tail call void @_ZNSt7__cxx1112basic_stringIcSt11char_traitsIcESaIcEED1Ev(ptr noundef nonnull align 8 dereferenceable(32) %5) #12
  resume { ptr, i32 } %10
}